target datalayout = "e-m:e-p270:32:32-p271:32:32-p272:64:64-i64:64-i128:128-f80:128-n8:16:32:64-S128"
target triple = "x86_64-pc-linux-gnu"

%struct.ASN1_ITEM_st = type { i8, i64, ptr, i64, ptr, i64, ptr }

; Function Attrs: nounwind uwtable
define internal i32 @asn1_i2d_ex_primitive(ptr noundef %0, ptr noundef %1, ptr noundef %2, i32 noundef %3, i32 noundef %4) #0 {
  %6 = alloca i32, align 4
  %7 = alloca ptr, align 8
  %8 = alloca ptr, align 8
  %9 = alloca ptr, align 8
  %10 = alloca i32, align 4
  %11 = alloca i32, align 4
  %12 = alloca i32, align 4
  %13 = alloca i32, align 4
  %14 = alloca i32, align 4
  %15 = alloca i32, align 4
  %16 = alloca i32, align 4
  store ptr %0, ptr %7, align 8, !tbaa !16
  store ptr %1, ptr %8, align 8, !tbaa !8
  store ptr %2, ptr %9, align 8, !tbaa !10
  store i32 %3, ptr %10, align 4, !tbaa !12
  store i32 %4, ptr %11, align 4, !tbaa !12
  call void @llvm.lifetime.start.p0(i64 4, ptr %12) #6
  call void @llvm.lifetime.start.p0(i64 4, ptr %13) #6
  call void @llvm.lifetime.start.p0(i64 4, ptr %14) #6
  call void @llvm.lifetime.start.p0(i64 4, ptr %15) #6
  store i32 0, ptr %15, align 4, !tbaa !12
  %17 = load ptr, ptr %9, align 8, !tbaa !10
  %18 = getelementptr inbounds nuw %struct.ASN1_ITEM_st, ptr %17, i32 0, i32 1
  %19 = load i64, ptr %18, align 8, !tbaa !47
  %20 = trunc i64 %19 to i32
  store i32 %20, ptr %13, align 4, !tbaa !12
  %21 = load ptr, ptr %7, align 8, !tbaa !16
  %22 = load ptr, ptr %9, align 8, !tbaa !10
  %23 = call i32 @asn1_ex_i2c(ptr noundef %21, ptr noundef null, ptr noundef %13, ptr noundef %22)
  store i32 %23, ptr %12, align 4, !tbaa !12
  %24 = load i32, ptr %13, align 4, !tbaa !12
  %25 = icmp eq i32 %24, 16
  br i1 %25, label %32, label %26

26:                                               ; preds = %5
  %27 = load i32, ptr %13, align 4, !tbaa !12
  %28 = icmp eq i32 %27, 17
  br i1 %28, label %32, label %29

29:                                               ; preds = %26
  %30 = load i32, ptr %13, align 4, !tbaa !12
  %31 = icmp eq i32 %30, -3
  br i1 %31, label %32, label %33

32:                                               ; preds = %29, %26, %5
  store i32 0, ptr %14, align 4, !tbaa !12
  br label %34

33:                                               ; preds = %29
  store i32 1, ptr %14, align 4, !tbaa !12
  br label %34

34:                                               ; preds = %33, %32
  %35 = load i32, ptr %12, align 4, !tbaa !12
  %36 = icmp eq i32 %35, -1
  br i1 %36, label %37, label %38

37:                                               ; preds = %34
  store i32 0, ptr %6, align 4
  store i32 1, ptr %16, align 4
  br label %87

38:                                               ; preds = %34
  %39 = load i32, ptr %12, align 4, !tbaa !12
  %40 = icmp eq i32 %39, -2
  br i1 %40, label %41, label %42

41:                                               ; preds = %38
  store i32 2, ptr %15, align 4, !tbaa !12
  store i32 0, ptr %12, align 4, !tbaa !12
  br label %42

42:                                               ; preds = %41, %38
  %43 = load i32, ptr %10, align 4, !tbaa !12
  %44 = icmp eq i32 %43, -1
  br i1 %44, label %45, label %47

45:                                               ; preds = %42
  %46 = load i32, ptr %13, align 4, !tbaa !12
  store i32 %46, ptr %10, align 4, !tbaa !12
  br label %47

47:                                               ; preds = %45, %42
  %48 = load ptr, ptr %8, align 8, !tbaa !8
  %49 = icmp ne ptr %48, null
  br i1 %49, label %50, label %77

50:                                               ; preds = %47
  %51 = load i32, ptr %14, align 4, !tbaa !12
  %52 = icmp ne i32 %51, 0
  br i1 %52, label %53, label %59

53:                                               ; preds = %50
  %54 = load ptr, ptr %8, align 8, !tbaa !8
  %55 = load i32, ptr %15, align 4, !tbaa !12
  %56 = load i32, ptr %12, align 4, !tbaa !12
  %57 = load i32, ptr %10, align 4, !tbaa !12
  %58 = load i32, ptr %11, align 4, !tbaa !12
  call void @ASN1_put_object(ptr noundef %54, i32 noundef %55, i32 noundef %56, i32 noundef %57, i32 noundef %58)
  br label %59

59:                                               ; preds = %53, %50
  %60 = load ptr, ptr %7, align 8, !tbaa !16
  %61 = load ptr, ptr %8, align 8, !tbaa !8
  %62 = load ptr, ptr %61, align 8, !tbaa !14
  %63 = load ptr, ptr %9, align 8, !tbaa !10
  %64 = call i32 @asn1_ex_i2c(ptr noundef %60, ptr noundef %62, ptr noundef %13, ptr noundef %63)
  %65 = load i32, ptr %15, align 4, !tbaa !12
  %66 = icmp ne i32 %65, 0
  br i1 %66, label %67, label %70

67:                                               ; preds = %59
  %68 = load ptr, ptr %8, align 8, !tbaa !8
  %69 = call i32 @ASN1_put_eoc(ptr noundef %68)
  br label %76

70:                                               ; preds = %59
  %71 = load i32, ptr %12, align 4, !tbaa !12
  %72 = load ptr, ptr %8, align 8, !tbaa !8
  %73 = load ptr, ptr %72, align 8, !tbaa !14
  %74 = sext i32 %71 to i64
  %75 = getelementptr inbounds i8, ptr %73, i64 %74
  store ptr %75, ptr %72, align 8, !tbaa !14
  br label %76

76:                                               ; preds = %70, %67
  br label %77

77:                                               ; preds = %76, %47
  %78 = load i32, ptr %14, align 4, !tbaa !12
  %79 = icmp ne i32 %78, 0
  br i1 %79, label %80, label %85

80:                                               ; preds = %77
  %81 = load i32, ptr %15, align 4, !tbaa !12
  %82 = load i32, ptr %12, align 4, !tbaa !12
  %83 = load i32, ptr %10, align 4, !tbaa !12
  %84 = call i32 @ASN1_object_size(i32 noundef %81, i32 noundef %82, i32 noundef %83)
  store i32 %84, ptr %6, align 4
  store i32 1, ptr %16, align 4
  br label %87

85:                                               ; preds = %77
  %86 = load i32, ptr %12, align 4, !tbaa !12
  store i32 %86, ptr %6, align 4
  store i32 1, ptr %16, align 4
  br label %87

87:                                               ; preds = %85, %80, %37
  call void @llvm.lifetime.end.p0(i64 4, ptr %15) #6
  call void @llvm.lifetime.end.p0(i64 4, ptr %14) #6
  call void @llvm.lifetime.end.p0(i64 4, ptr %13) #6
  call void @llvm.lifetime.end.p0(i64 4, ptr %12) #6
  %88 = load i32, ptr %6, align 4
  ret i32 %88
}